; Function Attrs: nounwind uwtable
define noalias ptr @l_Array_foldrMUnsafe_fold___at_Lean_Elab_Deriving_FromToJson_mkFromJsonBodyForInduct___spec__1___boxed(ptr noundef %0, ptr noundef %1, ptr noundef %2, ptr noundef %3, ptr noundef %4, ptr noundef %5, ptr noundef %6, ptr noundef %7, ptr noundef %8, ptr noundef %9, ptr noundef %10, ptr noundef %11, ptr noundef %12, ptr noundef %13, ptr noundef %14, ptr noundef %15) local_unnamed_addr #0 {
  %17 = getelementptr i8, ptr %6, i64 8
  %.val51 = load i64, ptr %17, align 8, !tbaa !13
  %18 = ptrtoint ptr %6 to i64
  %19 = and i64 %18, 1
  %.not = icmp eq i64 %19, 0
  br i1 %.not, label %20, label %lean_dec.exit34

20:                                               ; preds = %16
  %21 = load i32, ptr %6, align 4, !tbaa !8
  %22 = icmp sgt i32 %21, 1
  br i1 %22, label %23, label %25, !prof !11

23:                                               ; preds = %20
  %24 = add nsw i32 %21, -1
  store i32 %24, ptr %6, align 4, !tbaa !8
  br label %lean_dec.exit34

25:                                               ; preds = %20
  %.not.i = icmp eq i32 %21, 0
  br i1 %.not.i, label %lean_dec.exit34, label %26

26:                                               ; preds = %25
  tail call void @lean_dec_ref_cold(ptr noundef nonnull %6) #5
  br label %lean_dec.exit34

lean_dec.exit34:                                  ; preds = %26, %25, %23, %16
  %27 = getelementptr i8, ptr %7, i64 8
  %.val = load i64, ptr %27, align 8, !tbaa !13
  %28 = ptrtoint ptr %7 to i64
  %29 = and i64 %28, 1
  %.not52 = icmp eq i64 %29, 0
  br i1 %.not52, label %30, label %lean_dec.exit33

30:                                               ; preds = %lean_dec.exit34
  %31 = load i32, ptr %7, align 4, !tbaa !8
  %32 = icmp sgt i32 %31, 1
  br i1 %32, label %33, label %35, !prof !11

33:                                               ; preds = %30
  %34 = add nsw i32 %31, -1
  store i32 %34, ptr %7, align 4, !tbaa !8
  br label %lean_dec.exit33

35:                                               ; preds = %30
  %.not.i35 = icmp eq i32 %31, 0
  br i1 %.not.i35, label %lean_dec.exit33, label %36

36:                                               ; preds = %35
  tail call void @lean_dec_ref_cold(ptr noundef nonnull %7) #5
  br label %lean_dec.exit33

lean_dec.exit33:                                  ; preds = %36, %35, %33, %lean_dec.exit34
  %37 = tail call ptr @l_Array_foldrMUnsafe_fold___at_Lean_Elab_Deriving_FromToJson_mkFromJsonBodyForInduct___spec__1(ptr poison, ptr noundef %1, ptr noundef %2, ptr noundef %3, ptr noundef %4, ptr noundef %5, i64 noundef %.val51, i64 noundef %.val, ptr noundef %8, ptr poison, ptr poison, ptr poison, ptr poison, ptr noundef %13, ptr noundef %14, ptr noundef %15)
  %38 = ptrtoint ptr %14 to i64
  %39 = and i64 %38, 1
  %.not53 = icmp eq i64 %39, 0
  br i1 %.not53, label %40, label %lean_dec.exit32

40:                                               ; preds = %lean_dec.exit33
  %41 = load i32, ptr %14, align 4, !tbaa !8
  %42 = icmp sgt i32 %41, 1
  br i1 %42, label %43, label %45, !prof !11

43:                                               ; preds = %40
  %44 = add nsw i32 %41, -1
  store i32 %44, ptr %14, align 4, !tbaa !8
  br label %lean_dec.exit32

45:                                               ; preds = %40
  %.not.i37 = icmp eq i32 %41, 0
  br i1 %.not.i37, label %lean_dec.exit32, label %46

46:                                               ; preds = %45
  tail call void @lean_dec_ref_cold(ptr noundef nonnull %14) #5
  br label %lean_dec.exit32

lean_dec.exit32:                                  ; preds = %46, %45, %43, %lean_dec.exit33
  %47 = ptrtoint ptr %12 to i64
  %48 = and i64 %47, 1
  %.not54 = icmp eq i64 %48, 0
  br i1 %.not54, label %49, label %lean_dec.exit31

49:                                               ; preds = %lean_dec.exit32
  %50 = load i32, ptr %12, align 4, !tbaa !8
  %51 = icmp sgt i32 %50, 1
  br i1 %51, label %52, label %54, !prof !11

52:                                               ; preds = %49
  %53 = add nsw i32 %50, -1
  store i32 %53, ptr %12, align 4, !tbaa !8
  br label %lean_dec.exit31

54:                                               ; preds = %49
  %.not.i39 = icmp eq i32 %50, 0
  br i1 %.not.i39, label %lean_dec.exit31, label %55

55:                                               ; preds = %54
  tail call void @lean_dec_ref_cold(ptr noundef nonnull %12) #5
  br label %lean_dec.exit31

lean_dec.exit31:                                  ; preds = %55, %54, %52, %lean_dec.exit32
  %56 = ptrtoint ptr %11 to i64
  %57 = and i64 %56, 1
  %.not55 = icmp eq i64 %57, 0
  br i1 %.not55, label %58, label %lean_dec.exit30

58:                                               ; preds = %lean_dec.exit31
  %59 = load i32, ptr %11, align 4, !tbaa !8
  %60 = icmp sgt i32 %59, 1
  br i1 %60, label %61, label %63, !prof !11

61:                                               ; preds = %58
  %62 = add nsw i32 %59, -1
  store i32 %62, ptr %11, align 4, !tbaa !8
  br label %lean_dec.exit30

63:                                               ; preds = %58
  %.not.i41 = icmp eq i32 %59, 0
  br i1 %.not.i41, label %lean_dec.exit30, label %64

64:                                               ; preds = %63
  tail call void @lean_dec_ref_cold(ptr noundef nonnull %11) #5
  br label %lean_dec.exit30

lean_dec.exit30:                                  ; preds = %64, %63, %61, %lean_dec.exit31
  %65 = ptrtoint ptr %10 to i64
  %66 = and i64 %65, 1
  %.not56 = icmp eq i64 %66, 0
  br i1 %.not56, label %67, label %lean_dec.exit29

67:                                               ; preds = %lean_dec.exit30
  %68 = load i32, ptr %10, align 4, !tbaa !8
  %69 = icmp sgt i32 %68, 1
  br i1 %69, label %70, label %72, !prof !11

70:                                               ; preds = %67
  %71 = add nsw i32 %68, -1
  store i32 %71, ptr %10, align 4, !tbaa !8
  br label %lean_dec.exit29

72:                                               ; preds = %67
  %.not.i43 = icmp eq i32 %68, 0
  br i1 %.not.i43, label %lean_dec.exit29, label %73

73:                                               ; preds = %72
  tail call void @lean_dec_ref_cold(ptr noundef nonnull %10) #5
  br label %lean_dec.exit29

lean_dec.exit29:                                  ; preds = %73, %72, %70, %lean_dec.exit30
  %74 = ptrtoint ptr %9 to i64
  %75 = and i64 %74, 1
  %.not57 = icmp eq i64 %75, 0
  br i1 %.not57, label %76, label %lean_dec.exit28

76:                                               ; preds = %lean_dec.exit29
  %77 = load i32, ptr %9, align 4, !tbaa !8
  %78 = icmp sgt i32 %77, 1
  br i1 %78, label %79, label %81, !prof !11

79:                                               ; preds = %76
  %80 = add nsw i32 %77, -1
  store i32 %80, ptr %9, align 4, !tbaa !8
  br label %lean_dec.exit28

81:                                               ; preds = %76
  %.not.i45 = icmp eq i32 %77, 0
  br i1 %.not.i45, label %lean_dec.exit28, label %82

82:                                               ; preds = %81
  tail call void @lean_dec_ref_cold(ptr noundef nonnull %9) #5
  br label %lean_dec.exit28

lean_dec.exit28:                                  ; preds = %82, %81, %79, %lean_dec.exit29
  %83 = ptrtoint ptr %5 to i64
  %84 = and i64 %83, 1
  %.not58 = icmp eq i64 %84, 0
  br i1 %.not58, label %85, label %lean_dec.exit27

85:                                               ; preds = %lean_dec.exit28
  %86 = load i32, ptr %5, align 4, !tbaa !8
  %87 = icmp sgt i32 %86, 1
  br i1 %87, label %88, label %90, !prof !11

88:                                               ; preds = %85
  %89 = add nsw i32 %86, -1
  store i32 %89, ptr %5, align 4, !tbaa !8
  br label %lean_dec.exit27

90:                                               ; preds = %85
  %.not.i47 = icmp eq i32 %86, 0
  br i1 %.not.i47, label %lean_dec.exit27, label %91

91:                                               ; preds = %90
  tail call void @lean_dec_ref_cold(ptr noundef nonnull %5) #5
  br label %lean_dec.exit27

lean_dec.exit27:                                  ; preds = %91, %90, %88, %lean_dec.exit28
  %92 = ptrtoint ptr %0 to i64
  %93 = and i64 %92, 1
  %.not59 = icmp eq i64 %93, 0
  br i1 %.not59, label %94, label %lean_dec.exit

94:                                               ; preds = %lean_dec.exit27
  %95 = load i32, ptr %0, align 4, !tbaa !8
  %96 = icmp sgt i32 %95, 1
  br i1 %96, label %97, label %99, !prof !11

97:                                               ; preds = %94
  %98 = add nsw i32 %95, -1
  store i32 %98, ptr %0, align 4, !tbaa !8
  br label %lean_dec.exit

99:                                               ; preds = %94
  %.not.i49 = icmp eq i32 %95, 0
  br i1 %.not.i49, label %lean_dec.exit, label %100

100:                                              ; preds = %99
  tail call void @lean_dec_ref_cold(ptr noundef nonnull %0) #5
  br label %lean_dec.exit

lean_dec.exit:                                    ; preds = %100, %99, %97, %lean_dec.exit27
  ret ptr %37
}